; Function Attrs: mustprogress nofree norecurse nosync nounwind willreturn memory(argmem: read) uwtable
define hidden noundef range(i32 54528, 0) i32 @_ZN9Assembler16get_prefixq_rex2E7Addressb(ptr nocapture noundef nonnull readnone align 8 dereferenceable(40) %0, ptr nocapture noundef readonly %1, i1 noundef zeroext %2) local_unnamed_addr #12 align 2 {
  %.sroa.0.0.copyload.i = load i32, ptr %1, align 8
  %4 = getelementptr inbounds i8, ptr %1, i64 4
  %.sroa.0.0.copyload.i6 = load i32, ptr %4, align 4
  %5 = sext i32 %.sroa.0.0.copyload.i6 to i64
  %6 = getelementptr inbounds %"class.Register::RegisterImpl", ptr getelementptr inbounds (i8, ptr @all_RegisterImpls, i64 1), i64 %5
  %7 = ptrtoint ptr %6 to i64
  %8 = trunc i64 %7 to i32
  %9 = sub i32 %8, ptrtoint (ptr getelementptr inbounds (i8, ptr @all_RegisterImpls, i64 1) to i32)
  %10 = icmp ult i32 %9, 32
  br i1 %10, label %11, label %_ZN9Assembler21get_index_prefix_bitsE8Register.exit

11:                                               ; preds = %3
  %12 = shl nuw nsw i32 %9, 1
  %spec.select.i.i = and i32 %12, 32
  %13 = lshr i32 %9, 2
  %14 = and i32 %13, 2
  %.1.i.i7 = or disjoint i32 %spec.select.i.i, %14
  br label %_ZN9Assembler21get_index_prefix_bitsE8Register.exit

_ZN9Assembler21get_index_prefix_bitsE8Register.exit: ; preds = %3, %11
  %15 = phi i32 [ %.1.i.i7, %11 ], [ 0, %3 ]
  %16 = sext i32 %.sroa.0.0.copyload.i to i64
  %17 = getelementptr inbounds %"class.Register::RegisterImpl", ptr getelementptr inbounds (i8, ptr @all_RegisterImpls, i64 1), i64 %16
  %18 = ptrtoint ptr %17 to i64
  %19 = trunc i64 %18 to i32
  %20 = sub i32 %19, ptrtoint (ptr getelementptr inbounds (i8, ptr @all_RegisterImpls, i64 1) to i32)
  %21 = icmp ult i32 %20, 32
  %22 = lshr i32 %20, 3
  %23 = and i32 %22, 1
  %24 = and i32 %20, 16
  %.1.i.i = or disjoint i32 %23, %24
  %25 = select i1 %21, i32 %.1.i.i, i32 0
  %26 = select i1 %2, i32 54664, i32 54536
  %27 = or disjoint i32 %26, %25
  %28 = or i32 %27, %15
  ret i32 %28
}